target datalayout = "e-m:e-p270:32:32-p271:32:32-p272:64:64-i64:64-i128:128-f80:128-n8:16:32:64-S128"
target triple = "x86_64-pc-linux-gnu"

%struct.Kit_DsdNtk_t_ = type { i16, i16, i16, i16, ptr, ptr, ptr }

@.str.5 = private unnamed_addr constant [2 x i8] c"!\00", align 1
@.str.8 = private unnamed_addr constant [5 x i8] c"F = \00", align 1

; Function Attrs: inlinehint nounwind uwtable
define internal i32 @Abc_Lit2Var(i32 noundef %0) #4 {
  %2 = alloca i32, align 4
  store i32 %0, ptr %2, align 4, !tbaa !3
  %3 = load i32, ptr %2, align 4, !tbaa !3
  %4 = ashr i32 %3, 1
  ret i32 %4
}

; Function Attrs: inlinehint nounwind uwtable
define internal i32 @Abc_LitIsCompl(i32 noundef %0) #4 {
  %2 = alloca i32, align 4
  store i32 %0, ptr %2, align 4, !tbaa !3
  %3 = load i32, ptr %2, align 4, !tbaa !3
  %4 = and i32 %3, 1
  ret i32 %4
}

; Function Attrs: nounwind uwtable
define void @Kit_DsdPrint(ptr noundef %0, ptr noundef %1) #0 {
  %3 = alloca ptr, align 8
  %4 = alloca ptr, align 8
  store ptr %0, ptr %3, align 8, !tbaa !51
  store ptr %1, ptr %4, align 8, !tbaa !37
  %5 = load ptr, ptr %3, align 8, !tbaa !51
  %6 = call i32 (ptr, ptr, ...) @fprintf(ptr noundef %5, ptr noundef @.str.8) #9
  %7 = load ptr, ptr %4, align 8, !tbaa !37
  %8 = getelementptr inbounds nuw %struct.Kit_DsdNtk_t_, ptr %7, i32 0, i32 3
  %9 = load i16, ptr %8, align 2, !tbaa !60
  %10 = zext i16 %9 to i32
  %11 = call i32 @Abc_LitIsCompl(i32 noundef %10)
  %12 = icmp ne i32 %11, 0
  br i1 %12, label %13, label %16

13:                                               ; preds = %2
  %14 = load ptr, ptr %3, align 8, !tbaa !51
  %15 = call i32 (ptr, ptr, ...) @fprintf(ptr noundef %14, ptr noundef @.str.5) #9
  br label %16

16:                                               ; preds = %13, %2
  %17 = load ptr, ptr %3, align 8, !tbaa !51
  %18 = load ptr, ptr %4, align 8, !tbaa !37
  %19 = load ptr, ptr %4, align 8, !tbaa !37
  %20 = getelementptr inbounds nuw %struct.Kit_DsdNtk_t_, ptr %19, i32 0, i32 3
  %21 = load i16, ptr %20, align 2, !tbaa !60
  %22 = zext i16 %21 to i32
  %23 = call i32 @Abc_Lit2Var(i32 noundef %22)
  call void @Kit_DsdPrint_rec(ptr noundef %17, ptr noundef %18, i32 noundef %23)
  ret void
}