; Function Attrs: nofree nounwind uwtable
define void @Kit_DsdPrint(ptr noundef captures(none) %0, ptr noundef readonly captures(none) %1) local_unnamed_addr #10 {
  %3 = tail call i64 @fwrite(ptr nonnull @.str.8, i64 4, i64 1, ptr %0)
  %4 = getelementptr inbounds nuw i8, ptr %1, i64 6
  %5 = load i16, ptr %4, align 2, !tbaa !51
  %6 = and i16 %5, 1
  %.not = icmp eq i16 %6, 0
  br i1 %.not, label %8, label %7

7:                                                ; preds = %2
  %fputc = tail call i32 @fputc(i32 33, ptr %0)
  %.pre = load i16, ptr %4, align 2, !tbaa !51
  br label %8

8:                                                ; preds = %7, %2
  %9 = phi i16 [ %.pre, %7 ], [ %5, %2 ]
  %10 = lshr i16 %9, 1
  %11 = zext nneg i16 %10 to i32
  tail call void @Kit_DsdPrint_rec(ptr noundef %0, ptr noundef nonnull %1, i32 noundef %11)
  ret void
}